Certificate:
    Data:
        Version: 3 (0x2)
        Serial Number: 0 (0x0)
        Signature Algorithm: sha1WithRSAEncryption
        Issuer: C=FR, O=CNRS, CN=CNRS2
        Validity
            Not Before: Jan 21 08:51:13 2009 GMT
            Not After : Jan 21 08:51:13 2029 GMT
        Subject: C=FR, O=CNRS, CN=CNRS2
        Subject Public Key Info:
            Public Key Algorithm: rsaEncryption
            RSA Public Key: (2048 bit)
                Modulus (2048 bit):
                    00:b8:ba:77:ab:57:9d:12:25:19:15:44:8a:23:55:
                    da:63:0d:06:6d:59:eb:c1:04:a0:17:79:12:f3:27:
                    82:48:ea:8d:be:3c:cb:36:35:78:1b:04:d5:29:03:
                    b5:69:48:29:fb:a7:a7:6b:c4:dc:d2:29:10:f3:e2:
                    4e:95:a5:00:ad:49:75:c2:1c:eb:22:38:cd:99:08:
                    7f:f2:f1:24:aa:f1:2a:4d:0c:6c:b3:a2:22:76:2b:
                    fb:77:b6:60:3c:3d:88:57:a9:eb:af:16:a5:90:61:
                    51:80:ff:c3:7c:b9:ae:83:bd:25:5d:a0:3d:94:b9:
                    6c:36:9c:c8:4d:3d:63:df:27:ce:c4:0d:64:b5:42:
                    25:91:36:15:9c:93:4b:21:19:34:f6:29:13:41:ce:
                    0f:bb:92:ef:96:ac:6f:54:3a:f3:c0:2b:04:19:d1:
                    fe:bc:dc:ee:f1:e1:4e:43:8e:e6:13:dc:27:da:bb:
                    00:72:5d:b3:7f:2e:30:98:68:c6:3d:05:2c:02:07:
                    4a:12:36:cd:da:be:cf:0c:6b:0a:4c:1a:0a:eb:db:
                    01:f2:e1:9c:ac:42:c4:92:5c:57:26:b6:d6:f5:d4:
                    8a:bd:6b:1c:0c:33:1a:2e:ed:a6:84:84:36:26:cc:
                    a4:ef:fe:24:f9:1b:5f:ae:2d:59:03:50:2e:0f:08:
                    71:f5
                Exponent: 65537 (0x10001)
        X509v3 extensions:
            X509v3 Basic Constraints: critical
                CA:TRUE
            X509v3 Subject Key Identifier: 
                50:97:B6:0D:F7:AC:33:17:AF:F1:1D:46:3C:6B:3B:FF:00:A0:E5:E5
            X509v3 Authority Key Identifier: 
                keyid:50:97:B6:0D:F7:AC:33:17:AF:F1:1D:46:3C:6B:3B:FF:00:A0:E5:E5
                DirName:/C=FR/O=CNRS/CN=CNRS2
                serial:00

            X509v3 Key Usage: critical
                Certificate Sign, CRL Sign
    Signature Algorithm: sha1WithRSAEncryption
        34:31:6b:40:21:bf:87:f5:5e:7c:a1:a5:f5:ff:18:d2:24:e6:
        50:bc:67:98:ae:3b:0c:18:c7:88:08:ad:93:d1:06:09:90:6a:
        fe:a8:14:f1:90:0d:6b:48:70:d9:d0:67:7a:85:94:6a:9f:f0:
        69:9d:d6:78:ff:d7:b4:fc:ea:08:ed:ce:5a:08:5a:53:2e:af:
        f5:f2:de:3b:b2:99:39:fd:7d:b1:eb:cc:54:74:05:17:10:66:
        5f:1a:ce:36:f5:4b:e1:9f:93:b1:f8:2b:8a:88:11:31:fc:f3:
        6a:a3:8d:1d:d6:0a:5d:ea:f9:4c:d6:e2:42:e6:3c:0b:2e:ec:
        62:4c:69:0e:2c:26:9e:a6:8d:e7:37:af:5f:6a:21:0c:45:e9:
        2f:f3:49:b7:1b:f5:5f:21:52:20:24:0a:30:ca:62:bd:01:82:
        66:4c:41:f2:cb:42:fd:62:af:44:7b:29:69:19:15:a5:81:44:
        e8:c3:de:7c:94:33:66:9e:13:8f:51:83:cf:53:f8:0d:e7:ae:
        bc:4e:fa:81:c8:1f:2c:29:64:dd:6b:63:23:9c:1f:c7:f7:77:
        3a:e2:32:ea:69:21:f5:9d:39:c2:77:fa:06:b4:d2:08:a1:90:
        47:0c:ac:51:68:1c:2c:0f:7d:a7:d6:a0:d1:55:f5:3e:93:f4:
        aa:8d:19:cd
-----BEGIN CERTIFICATE-----
MIIDbTCCAlWgAwIBAgIBADANBgkqhkiG9w0BAQUFADAsMQswCQYDVQQGEwJGUjEN
MAsGA1UEChMEQ05SUzEOMAwGA1UEAxMFQ05SUzIwHhcNMDkwMTIxMDg1MTEzWhcN
MjkwMTIxMDg1MTEzWjAsMQswCQYDVQQGEwJGUjENMAsGA1UEChMEQ05SUzEOMAwG
A1UEAxMFQ05SUzIwggEiMA0GCSqGSIb3DQEBAQUAA4IBDwAwggEKAoIBAQC4uner
V50SJRkVRIojVdpjDQZtWevBBKAXeRLzJ4JI6o2+PMs2NXgbBNUpA7VpSCn7p6dr
xNzSKRDz4k6VpQCtSXXCHOsiOM2ZCH/y8SSq8SpNDGyzoiJ2K/t3tmA8PYhXqeuv
FqWQYVGA/8N8ua6DvSVdoD2UuWw2nMhNPWPfJ87EDWS1QiWRNhWck0shGTT2KRNB
zg+7ku+WrG9UOvPAKwQZ0f683O7x4U5DjuYT3CfauwByXbN/LjCYaMY9BSwCB0oS
Ns3avs8MawpMGgrr2wHy4ZysQsSSXFcmttb11Iq9axwMMxou7aaEhDYmzKTv/iT5
G1+uLVkDUC4PCHH1AgMBAAGjgZkwgZYwDwYDVR0TAQH/BAUwAwEB/zAdBgNVHQ4E
FgQUUJe2DfesMxev8R1GPGs7/wCg5eUwVAYDVR0jBE0wS4AUUJe2DfesMxev8R1G
PGs7/wCg5eWhMKQuMCwxCzAJBgNVBAYTAkZSMQ0wCwYDVQQKEwRDTlJTMQ4wDAYD
VQQDEwVDTlJTMoIBADAOBgNVHQ8BAf8EBAMCAQYwDQYJKoZIhvcNAQEFBQADggEB
ADQxa0Ahv4f1XnyhpfX/GNIk5lC8Z5iuOwwYx4gIrZPRBgmQav6oFPGQDWtIcNnQ
Z3qFlGqf8Gmd1nj/17T86gjtzloIWlMur/Xy3juymTn9fbHrzFR0BRcQZl8azjb1
S+Gfk7H4K4qIETH882qjjR3WCl3q+UzW4kLmPAsu7GJMaQ4sJp6mjec3r19qIQxF
6S/zSbcb9V8hUiAkCjDKYr0BgmZMQfLLQv1ir0R7KWkZFaWBROjD3nyUM2aeE49R
g89T+A3nrrxO+oHIHywpZN1rYyOcH8f3dzriMuppIfWdOcJ3+ga00gihkEcMrFFo
HCwPfafWoNFV9T6T9KqNGc0=
-----END CERTIFICATE-----
